target datalayout = "e-m:e-p270:32:32-p271:32:32-p272:64:64-i64:64-i128:128-f80:128-n8:16:32:64-S128"
target triple = "x86_64-pc-linux-gnu"

%class.cmCTestStartCommand = type <{ %class.cmCTestCommand, i8, i8, [6 x i8] }>
%class.cmCTestCommand = type { %class.cmCommand, ptr, ptr }
%class.cmCommand = type { ptr, ptr, ptr }

@_ZTV14cmCTestCommand = linkonce_odr dso_local unnamed_addr constant { [6 x ptr] } { [6 x ptr] [ptr null, ptr @_ZTI14cmCTestCommand, ptr @_ZN14cmCTestCommandD2Ev, ptr @_ZN14cmCTestCommandD0Ev, ptr @__cxa_pure_virtual, ptr @__cxa_pure_virtual] }, comdat, align 8
@_ZTV9cmCommand = linkonce_odr dso_local unnamed_addr constant { [6 x ptr] } { [6 x ptr] [ptr null, ptr @_ZTI9cmCommand, ptr @_ZN9cmCommandD2Ev, ptr @_ZN9cmCommandD0Ev, ptr @__cxa_pure_virtual, ptr @__cxa_pure_virtual] }, comdat, align 8

; Function Attrs: mustprogress nounwind uwtable
define linkonce_odr dso_local void @_ZN9cmCommandC2Ev(ptr noundef nonnull align 8 dereferenceable(24) %0) unnamed_addr #5 comdat align 2 {
  %2 = alloca ptr, align 8
  store ptr %0, ptr %2, align 8
  %3 = load ptr, ptr %2, align 8
  store ptr getelementptr inbounds ({ [6 x ptr] }, ptr @_ZTV9cmCommand, i32 0, i32 0, i32 2), ptr %3, align 8
  %4 = getelementptr inbounds %class.cmCommand, ptr %3, i32 0, i32 1
  store ptr null, ptr %4, align 8
  %5 = getelementptr inbounds %class.cmCommand, ptr %3, i32 0, i32 2
  store ptr null, ptr %5, align 8
  ret void
}

; Function Attrs: mustprogress nounwind uwtable
define linkonce_odr dso_local void @_ZN14cmCTestCommandC2Ev(ptr noundef nonnull align 8 dereferenceable(40) %0) unnamed_addr #5 comdat align 2 {
  %2 = alloca ptr, align 8
  store ptr %0, ptr %2, align 8
  %3 = load ptr, ptr %2, align 8
  call void @_ZN9cmCommandC2Ev(ptr noundef nonnull align 8 dereferenceable(24) %3) #3
  store ptr getelementptr inbounds ({ [6 x ptr] }, ptr @_ZTV14cmCTestCommand, i32 0, i32 0, i32 2), ptr %3, align 8
  %4 = getelementptr inbounds %class.cmCTestCommand, ptr %3, i32 0, i32 1
  store ptr null, ptr %4, align 8
  %5 = getelementptr inbounds %class.cmCTestCommand, ptr %3, i32 0, i32 2
  store ptr null, ptr %5, align 8
  ret void
}

; Function Attrs: mustprogress uwtable
define dso_local void @_ZN19cmCTestStartCommandC2Ev(ptr noundef nonnull align 8 dereferenceable(42) %0) unnamed_addr #4 align 2 {
  %2 = alloca ptr, align 8
  store ptr %0, ptr %2, align 8
  %3 = load ptr, ptr %2, align 8
  call void @_ZN14cmCTestCommandC2Ev(ptr noundef nonnull align 8 dereferenceable(40) %3)
  store ptr getelementptr inbounds ({ [6 x ptr] }, ptr @_ZTV19cmCTestStartCommand, i32 0, i32 0, i32 2), ptr %3, align 8
  %4 = getelementptr inbounds %class.cmCTestStartCommand, ptr %3, i32 0, i32 1
  store i8 1, ptr %4, align 8
  %5 = getelementptr inbounds %class.cmCTestStartCommand, ptr %3, i32 0, i32 2
  store i8 0, ptr %5, align 1
  ret void
}