; Function Attrs: mustprogress nofree norecurse nosync nounwind willreturn memory(argmem: write) uwtable
define dso_local void @_ZN19cmCTestStartCommandC2Ev(ptr nocapture noundef nonnull writeonly align 8 dereferenceable(42) %0) unnamed_addr #3 align 2 {
  %2 = getelementptr inbounds i8, ptr %0, i64 8
  tail call void @llvm.memset.p0.i64(ptr noundef nonnull align 8 dereferenceable(32) %2, i8 0, i64 32, i1 false)
  store ptr getelementptr inbounds ({ [6 x ptr] }, ptr @_ZTV19cmCTestStartCommand, i64 0, i32 0, i64 2), ptr %0, align 8
  %3 = getelementptr inbounds i8, ptr %0, i64 40
  store i8 1, ptr %3, align 8
  %4 = getelementptr inbounds i8, ptr %0, i64 41
  store i8 0, ptr %4, align 1
  ret void
}